target datalayout = "e-m:e-p270:32:32-p271:32:32-p272:64:64-i64:64-i128:128-f80:128-n8:16:32:64-S128"
target triple = "x86_64-unknown-linux-gnu"

%"class.std::__cxx11::basic_string" = type { %"struct.std::__cxx11::basic_string<char>::_Alloc_hider", i64, %union.anon }
%"struct.std::__cxx11::basic_string<char>::_Alloc_hider" = type { ptr }
%union.anon = type { i64, [8 x i8] }
%"class.Assimp::MDLImporter" = type <{ %"class.Assimp::BaseImporter", i32, [4 x i8], %"class.std::__cxx11::basic_string", ptr, i32, [4 x i8], ptr, ptr, i32, %"struct.Assimp::MDL::HalfLife::HL1ImportSettings", [2 x i8] }>
%"class.Assimp::BaseImporter" = type { ptr, double, double, %"class.std::__cxx11::basic_string", %"class.std::__exception_ptr::exception_ptr", ptr }
%"class.std::__exception_ptr::exception_ptr" = type { ptr }
%"struct.Assimp::MDL::HalfLife::HL1ImportSettings" = type { i8, i8, i8, i8, i8, i8, i8, i8, i8, i8 }
%struct.aiTexture = type <{ i32, i32, [9 x i8], [7 x i8], ptr, %struct.aiString, [4 x i8] }>
%struct.aiString = type { i32, [1024 x i8] }
%struct.aiTexel = type { i8, i8, i8, i8 }
%"struct.Assimp::MDL::Header" = type { i32, i32, [3 x float], [3 x float], float, [3 x float], i32, i32, i32, i32, i32, i32, i32, i32, float }
%struct.aiScene = type { i32, ptr, i32, ptr, i32, ptr, i32, ptr, i32, ptr, i32, ptr, i32, ptr, ptr, %struct.aiString, i32, ptr, ptr }

@.str.2 = private unnamed_addr constant [40 x i8] c"Invalid MDL file. A texture is too big.\00", align 1
@_ZTI17DeadlyImportError = linkonce_odr constant { ptr, ptr, ptr } { ptr getelementptr inbounds (ptr, ptr @_ZTVN10__cxxabiv120__si_class_type_infoE, i64 2), ptr @_ZTS17DeadlyImportError, ptr @_ZTI15DeadlyErrorBase }, comdat, align 8

; Function Attrs: mustprogress nounwind uwtable
define linkonce_odr hidden void @_ZN8aiStringC2Ev(ptr noundef nonnull align 4 dereferenceable(1028) %this) unnamed_addr #0 comdat align 2 {
entry:
  %this.addr = alloca ptr, align 8
  store ptr %this, ptr %this.addr, align 8
  %this1 = load ptr, ptr %this.addr, align 8
  %length = getelementptr inbounds %struct.aiString, ptr %this1, i32 0, i32 0
  store i32 0, ptr %length, align 4
  %data = getelementptr inbounds %struct.aiString, ptr %this1, i32 0, i32 1
  %arrayidx = getelementptr inbounds [1024 x i8], ptr %data, i64 0, i64 0
  store i8 0, ptr %arrayidx, align 4
  ret void
}

; Function Attrs: mustprogress nounwind uwtable
define hidden void @_ZN6Assimp11MDLImporter11FreePaletteEPKh(ptr noundef nonnull align 8 dereferenceable(158) %this, ptr noundef %szColorMap) #0 align 2 {
entry:
  %this.addr = alloca ptr, align 8
  %szColorMap.addr = alloca ptr, align 8
  store ptr %this, ptr %this.addr, align 8
  store ptr %szColorMap, ptr %szColorMap.addr, align 8
  %0 = load ptr, ptr %szColorMap.addr, align 8
  %cmp = icmp ne ptr %0, @_ZL21g_aclrDefaultColorMap
  br i1 %cmp, label %if.then, label %if.end

if.then:                                          ; preds = %entry
  %1 = load ptr, ptr %szColorMap.addr, align 8
  %isnull = icmp eq ptr %1, null
  br i1 %isnull, label %delete.end, label %delete.notnull

delete.notnull:                                   ; preds = %if.then
  call void @_ZdaPv(ptr noundef %1) #18
  br label %delete.end

delete.end:                                       ; preds = %delete.notnull, %if.then
  br label %if.end

if.end:                                           ; preds = %delete.end, %entry
  ret void
}

; Function Attrs: mustprogress nounwind uwtable
define linkonce_odr hidden void @_ZN9aiTextureC2Ev(ptr noundef nonnull align 8 dereferenceable(1060) %this) unnamed_addr #0 comdat align 2 {
entry:
  %this.addr = alloca ptr, align 8
  store ptr %this, ptr %this.addr, align 8
  %this1 = load ptr, ptr %this.addr, align 8
  %mWidth = getelementptr inbounds %struct.aiTexture, ptr %this1, i32 0, i32 0
  store i32 0, ptr %mWidth, align 8
  %mHeight = getelementptr inbounds %struct.aiTexture, ptr %this1, i32 0, i32 1
  store i32 0, ptr %mHeight, align 4
  %pcData = getelementptr inbounds %struct.aiTexture, ptr %this1, i32 0, i32 4
  store ptr null, ptr %pcData, align 8
  %mFilename = getelementptr inbounds %struct.aiTexture, ptr %this1, i32 0, i32 5
  call void @_ZN8aiStringC2Ev(ptr noundef nonnull align 4 dereferenceable(1028) %mFilename) #15
  %achFormatHint = getelementptr inbounds %struct.aiTexture, ptr %this1, i32 0, i32 2
  %arraydecay = getelementptr inbounds [9 x i8], ptr %achFormatHint, i64 0, i64 0
  call void @llvm.memset.p0.i64(ptr align 8 %arraydecay, i8 0, i64 9, i1 false)
  ret void
}

; Function Attrs: mustprogress uwtable
define hidden void @_ZN6Assimp11MDLImporter28CreateTextureARGB8_3DGS_MDL3EPKh(ptr noundef nonnull align 8 dereferenceable(158) %this, ptr noundef %szData) #2 align 2 personality ptr @__gxx_personality_v0 {
entry:
  %this.addr = alloca ptr, align 8
  %szData.addr = alloca ptr, align 8
  %pcHeader = alloca ptr, align 8
  %pcNew = alloca ptr, align 8
  %exn.slot = alloca ptr, align 8
  %ehselector.slot = alloca i32, align 4
  %szColorMap = alloca ptr, align 8
  %i = alloca i32, align 4
  %val = alloca i8, align 1
  %sz = alloca ptr, align 8
  %pc = alloca ptr, align 8
  %i38 = alloca i32, align 4
  store ptr %this, ptr %this.addr, align 8
  store ptr %szData, ptr %szData.addr, align 8
  %this1 = load ptr, ptr %this.addr, align 8
  %mBuffer = getelementptr inbounds %"class.Assimp::MDLImporter", ptr %this1, i32 0, i32 4
  %0 = load ptr, ptr %mBuffer, align 8
  store ptr %0, ptr %pcHeader, align 8
  %1 = load ptr, ptr %szData.addr, align 8
  %2 = load ptr, ptr %pcHeader, align 8
  %skinwidth = getelementptr inbounds %"struct.Assimp::MDL::Header", ptr %2, i32 0, i32 7
  %3 = load i32, ptr %skinwidth, align 1
  %4 = load ptr, ptr %pcHeader, align 8
  %skinheight = getelementptr inbounds %"struct.Assimp::MDL::Header", ptr %4, i32 0, i32 8
  %5 = load i32, ptr %skinheight, align 1
  %mul = mul nsw i32 %3, %5
  %idx.ext = sext i32 %mul to i64
  %add.ptr = getelementptr inbounds i8, ptr %1, i64 %idx.ext
  call void @_ZN6Assimp11MDLImporter9SizeCheckEPKv(ptr noundef nonnull align 8 dereferenceable(158) %this1, ptr noundef %add.ptr)
  %call = call noalias noundef nonnull ptr @_Znwm(i64 noundef 1064) #16
  call void @_ZN9aiTextureC2Ev(ptr noundef nonnull align 8 dereferenceable(1060) %call) #15
  store ptr %call, ptr %pcNew, align 8
  %6 = load ptr, ptr %pcHeader, align 8
  %skinwidth2 = getelementptr inbounds %"struct.Assimp::MDL::Header", ptr %6, i32 0, i32 7
  %7 = load i32, ptr %skinwidth2, align 1
  %8 = load ptr, ptr %pcNew, align 8
  %mWidth = getelementptr inbounds %struct.aiTexture, ptr %8, i32 0, i32 0
  store i32 %7, ptr %mWidth, align 8
  %9 = load ptr, ptr %pcHeader, align 8
  %skinheight3 = getelementptr inbounds %"struct.Assimp::MDL::Header", ptr %9, i32 0, i32 8
  %10 = load i32, ptr %skinheight3, align 1
  %11 = load ptr, ptr %pcNew, align 8
  %mHeight = getelementptr inbounds %struct.aiTexture, ptr %11, i32 0, i32 1
  store i32 %10, ptr %mHeight, align 4
  %12 = load ptr, ptr %pcNew, align 8
  %mWidth4 = getelementptr inbounds %struct.aiTexture, ptr %12, i32 0, i32 0
  %13 = load i32, ptr %mWidth4, align 8
  %cmp = icmp ne i32 %13, 0
  br i1 %cmp, label %land.lhs.true, label %if.end

land.lhs.true:                                    ; preds = %entry
  %14 = load ptr, ptr %pcNew, align 8
  %mHeight5 = getelementptr inbounds %struct.aiTexture, ptr %14, i32 0, i32 1
  %15 = load i32, ptr %mHeight5, align 4
  %16 = load ptr, ptr %pcNew, align 8
  %mWidth6 = getelementptr inbounds %struct.aiTexture, ptr %16, i32 0, i32 0
  %17 = load i32, ptr %mWidth6, align 8
  %div = udiv i32 -1, %17
  %cmp7 = icmp ugt i32 %15, %div
  br i1 %cmp7, label %if.then, label %if.end

if.then:                                          ; preds = %land.lhs.true
  %exception = call ptr @__cxa_allocate_exception(i64 16) #15
  invoke void @_ZN17DeadlyImportErrorC2EPKc(ptr noundef nonnull align 8 dereferenceable(16) %exception, ptr noundef @.str.2)
          to label %invoke.cont unwind label %lpad

invoke.cont:                                      ; preds = %if.then
  call void @__cxa_throw(ptr %exception, ptr @_ZTI17DeadlyImportError, ptr @_ZN17DeadlyImportErrorD2Ev) #17
  unreachable

lpad:                                             ; preds = %if.then
  %18 = landingpad { ptr, i32 }
          cleanup
  %19 = extractvalue { ptr, i32 } %18, 0
  store ptr %19, ptr %exn.slot, align 8
  %20 = extractvalue { ptr, i32 } %18, 1
  store i32 %20, ptr %ehselector.slot, align 4
  call void @__cxa_free_exception(ptr %exception) #15
  br label %eh.resume

if.end:                                           ; preds = %land.lhs.true, %entry
  %21 = load ptr, ptr %pcNew, align 8
  %mWidth8 = getelementptr inbounds %struct.aiTexture, ptr %21, i32 0, i32 0
  %22 = load i32, ptr %mWidth8, align 8
  %23 = load ptr, ptr %pcNew, align 8
  %mHeight9 = getelementptr inbounds %struct.aiTexture, ptr %23, i32 0, i32 1
  %24 = load i32, ptr %mHeight9, align 4
  %mul10 = mul i32 %22, %24
  %conv = zext i32 %mul10 to i64
  %25 = call { i64, i1 } @llvm.umul.with.overflow.i64(i64 %conv, i64 4)
  %26 = extractvalue { i64, i1 } %25, 1
  %27 = extractvalue { i64, i1 } %25, 0
  %28 = select i1 %26, i64 -1, i64 %27
  %call11 = call noalias noundef nonnull ptr @_Znam(i64 noundef %28) #16
  %29 = load ptr, ptr %pcNew, align 8
  %pcData = getelementptr inbounds %struct.aiTexture, ptr %29, i32 0, i32 4
  store ptr %call11, ptr %pcData, align 8
  call void @_ZN6Assimp11MDLImporter13SearchPaletteEPPKh(ptr noundef nonnull align 8 dereferenceable(158) %this1, ptr noundef %szColorMap)
  store i32 0, ptr %i, align 4
  br label %for.cond

for.cond:                                         ; preds = %for.inc, %if.end
  %30 = load i32, ptr %i, align 4
  %31 = load ptr, ptr %pcNew, align 8
  %mWidth12 = getelementptr inbounds %struct.aiTexture, ptr %31, i32 0, i32 0
  %32 = load i32, ptr %mWidth12, align 8
  %33 = load ptr, ptr %pcNew, align 8
  %mHeight13 = getelementptr inbounds %struct.aiTexture, ptr %33, i32 0, i32 1
  %34 = load i32, ptr %mHeight13, align 4
  %mul14 = mul i32 %32, %34
  %cmp15 = icmp ult i32 %30, %mul14
  br i1 %cmp15, label %for.body, label %for.end

for.body:                                         ; preds = %for.cond
  %35 = load ptr, ptr %szData.addr, align 8
  %36 = load i32, ptr %i, align 4
  %idxprom = zext i32 %36 to i64
  %arrayidx = getelementptr inbounds i8, ptr %35, i64 %idxprom
  %37 = load i8, ptr %arrayidx, align 1
  store i8 %37, ptr %val, align 1
  %38 = load ptr, ptr %szColorMap, align 8
  %39 = load i8, ptr %val, align 1
  %conv16 = zext i8 %39 to i32
  %mul17 = mul nsw i32 %conv16, 3
  %idxprom18 = sext i32 %mul17 to i64
  %arrayidx19 = getelementptr inbounds i8, ptr %38, i64 %idxprom18
  store ptr %arrayidx19, ptr %sz, align 8
  %40 = load ptr, ptr %pcNew, align 8
  %pcData20 = getelementptr inbounds %struct.aiTexture, ptr %40, i32 0, i32 4
  %41 = load ptr, ptr %pcData20, align 8
  %42 = load i32, ptr %i, align 4
  %idxprom21 = zext i32 %42 to i64
  %arrayidx22 = getelementptr inbounds %struct.aiTexel, ptr %41, i64 %idxprom21
  %a = getelementptr inbounds %struct.aiTexel, ptr %arrayidx22, i32 0, i32 3
  store i8 -1, ptr %a, align 1
  %43 = load ptr, ptr %sz, align 8
  %incdec.ptr = getelementptr inbounds i8, ptr %43, i32 1
  store ptr %incdec.ptr, ptr %sz, align 8
  %44 = load i8, ptr %43, align 1
  %45 = load ptr, ptr %pcNew, align 8
  %pcData23 = getelementptr inbounds %struct.aiTexture, ptr %45, i32 0, i32 4
  %46 = load ptr, ptr %pcData23, align 8
  %47 = load i32, ptr %i, align 4
  %idxprom24 = zext i32 %47 to i64
  %arrayidx25 = getelementptr inbounds %struct.aiTexel, ptr %46, i64 %idxprom24
  %r = getelementptr inbounds %struct.aiTexel, ptr %arrayidx25, i32 0, i32 2
  store i8 %44, ptr %r, align 1
  %48 = load ptr, ptr %sz, align 8
  %incdec.ptr26 = getelementptr inbounds i8, ptr %48, i32 1
  store ptr %incdec.ptr26, ptr %sz, align 8
  %49 = load i8, ptr %48, align 1
  %50 = load ptr, ptr %pcNew, align 8
  %pcData27 = getelementptr inbounds %struct.aiTexture, ptr %50, i32 0, i32 4
  %51 = load ptr, ptr %pcData27, align 8
  %52 = load i32, ptr %i, align 4
  %idxprom28 = zext i32 %52 to i64
  %arrayidx29 = getelementptr inbounds %struct.aiTexel, ptr %51, i64 %idxprom28
  %g = getelementptr inbounds %struct.aiTexel, ptr %arrayidx29, i32 0, i32 1
  store i8 %49, ptr %g, align 1
  %53 = load ptr, ptr %sz, align 8
  %54 = load i8, ptr %53, align 1
  %55 = load ptr, ptr %pcNew, align 8
  %pcData30 = getelementptr inbounds %struct.aiTexture, ptr %55, i32 0, i32 4
  %56 = load ptr, ptr %pcData30, align 8
  %57 = load i32, ptr %i, align 4
  %idxprom31 = zext i32 %57 to i64
  %arrayidx32 = getelementptr inbounds %struct.aiTexel, ptr %56, i64 %idxprom31
  %b = getelementptr inbounds %struct.aiTexel, ptr %arrayidx32, i32 0, i32 0
  store i8 %54, ptr %b, align 1
  br label %for.inc

for.inc:                                          ; preds = %for.body
  %58 = load i32, ptr %i, align 4
  %inc = add i32 %58, 1
  store i32 %inc, ptr %i, align 4
  br label %for.cond, !llvm.loop !6

for.end:                                          ; preds = %for.cond
  %59 = load ptr, ptr %szColorMap, align 8
  call void @_ZN6Assimp11MDLImporter11FreePaletteEPKh(ptr noundef nonnull align 8 dereferenceable(158) %this1, ptr noundef %59)
  %pScene = getelementptr inbounds %"class.Assimp::MDLImporter", ptr %this1, i32 0, i32 8
  %60 = load ptr, ptr %pScene, align 8
  %mTextures = getelementptr inbounds %struct.aiScene, ptr %60, i32 0, i32 9
  %61 = load ptr, ptr %mTextures, align 8
  store ptr %61, ptr %pc, align 8
  %pScene33 = getelementptr inbounds %"class.Assimp::MDLImporter", ptr %this1, i32 0, i32 8
  %62 = load ptr, ptr %pScene33, align 8
  %mNumTextures = getelementptr inbounds %struct.aiScene, ptr %62, i32 0, i32 8
  %63 = load i32, ptr %mNumTextures, align 8
  %add = add i32 %63, 1
  %conv34 = zext i32 %add to i64
  %64 = call { i64, i1 } @llvm.umul.with.overflow.i64(i64 %conv34, i64 8)
  %65 = extractvalue { i64, i1 } %64, 1
  %66 = extractvalue { i64, i1 } %64, 0
  %67 = select i1 %65, i64 -1, i64 %66
  %call35 = call noalias noundef nonnull ptr @_Znam(i64 noundef %67) #16
  %pScene36 = getelementptr inbounds %"class.Assimp::MDLImporter", ptr %this1, i32 0, i32 8
  %68 = load ptr, ptr %pScene36, align 8
  %mTextures37 = getelementptr inbounds %struct.aiScene, ptr %68, i32 0, i32 9
  store ptr %call35, ptr %mTextures37, align 8
  store i32 0, ptr %i38, align 4
  br label %for.cond39

for.cond39:                                       ; preds = %for.inc50, %for.end
  %69 = load i32, ptr %i38, align 4
  %pScene40 = getelementptr inbounds %"class.Assimp::MDLImporter", ptr %this1, i32 0, i32 8
  %70 = load ptr, ptr %pScene40, align 8
  %mNumTextures41 = getelementptr inbounds %struct.aiScene, ptr %70, i32 0, i32 8
  %71 = load i32, ptr %mNumTextures41, align 8
  %cmp42 = icmp ult i32 %69, %71
  br i1 %cmp42, label %for.body43, label %for.end52

for.body43:                                       ; preds = %for.cond39
  %72 = load ptr, ptr %pc, align 8
  %73 = load i32, ptr %i38, align 4
  %idxprom44 = zext i32 %73 to i64
  %arrayidx45 = getelementptr inbounds ptr, ptr %72, i64 %idxprom44
  %74 = load ptr, ptr %arrayidx45, align 8
  %pScene46 = getelementptr inbounds %"class.Assimp::MDLImporter", ptr %this1, i32 0, i32 8
  %75 = load ptr, ptr %pScene46, align 8
  %mTextures47 = getelementptr inbounds %struct.aiScene, ptr %75, i32 0, i32 9
  %76 = load ptr, ptr %mTextures47, align 8
  %77 = load i32, ptr %i38, align 4
  %idxprom48 = zext i32 %77 to i64
  %arrayidx49 = getelementptr inbounds ptr, ptr %76, i64 %idxprom48
  store ptr %74, ptr %arrayidx49, align 8
  br label %for.inc50

for.inc50:                                        ; preds = %for.body43
  %78 = load i32, ptr %i38, align 4
  %inc51 = add i32 %78, 1
  store i32 %inc51, ptr %i38, align 4
  br label %for.cond39, !llvm.loop !7

for.end52:                                        ; preds = %for.cond39
  %79 = load ptr, ptr %pcNew, align 8
  %pScene53 = getelementptr inbounds %"class.Assimp::MDLImporter", ptr %this1, i32 0, i32 8
  %80 = load ptr, ptr %pScene53, align 8
  %mTextures54 = getelementptr inbounds %struct.aiScene, ptr %80, i32 0, i32 9
  %81 = load ptr, ptr %mTextures54, align 8
  %pScene55 = getelementptr inbounds %"class.Assimp::MDLImporter", ptr %this1, i32 0, i32 8
  %82 = load ptr, ptr %pScene55, align 8
  %mNumTextures56 = getelementptr inbounds %struct.aiScene, ptr %82, i32 0, i32 8
  %83 = load i32, ptr %mNumTextures56, align 8
  %idxprom57 = zext i32 %83 to i64
  %arrayidx58 = getelementptr inbounds ptr, ptr %81, i64 %idxprom57
  store ptr %79, ptr %arrayidx58, align 8
  %pScene59 = getelementptr inbounds %"class.Assimp::MDLImporter", ptr %this1, i32 0, i32 8
  %84 = load ptr, ptr %pScene59, align 8
  %mNumTextures60 = getelementptr inbounds %struct.aiScene, ptr %84, i32 0, i32 8
  %85 = load i32, ptr %mNumTextures60, align 8
  %inc61 = add i32 %85, 1
  store i32 %inc61, ptr %mNumTextures60, align 8
  %86 = load ptr, ptr %pc, align 8
  %isnull = icmp eq ptr %86, null
  br i1 %isnull, label %delete.end, label %delete.notnull

delete.notnull:                                   ; preds = %for.end52
  call void @_ZdaPv(ptr noundef %86) #18
  br label %delete.end

delete.end:                                       ; preds = %delete.notnull, %for.end52
  ret void

eh.resume:                                        ; preds = %lpad
  %exn = load ptr, ptr %exn.slot, align 8
  %sel = load i32, ptr %ehselector.slot, align 4
  %lpad.val = insertvalue { ptr, i32 } poison, ptr %exn, 0
  %lpad.val62 = insertvalue { ptr, i32 } %lpad.val, i32 %sel, 1
  resume { ptr, i32 } %lpad.val62
}