; Function Attrs: mustprogress uwtable
define hidden void @_ZN6Assimp11MDLImporter28CreateTextureARGB8_3DGS_MDL3EPKh(ptr noundef nonnull align 8 dereferenceable(158) %this, ptr noundef %szData) local_unnamed_addr #0 align 2 personality ptr @__gxx_personality_v0 {
entry:
  %szColorMap = alloca ptr, align 8
  %mBuffer = getelementptr inbounds i8, ptr %this, i64 112
  %0 = load ptr, ptr %mBuffer, align 8
  %skinwidth = getelementptr inbounds i8, ptr %0, i64 52
  %1 = load i32, ptr %skinwidth, align 1
  %skinheight = getelementptr inbounds i8, ptr %0, i64 56
  %2 = load i32, ptr %skinheight, align 1
  %mul = mul nsw i32 %2, %1
  %idx.ext = sext i32 %mul to i64
  %add.ptr = getelementptr inbounds i8, ptr %szData, i64 %idx.ext
  tail call void @_ZN6Assimp11MDLImporter9SizeCheckEPKv(ptr noundef nonnull align 8 dereferenceable(158) %this, ptr noundef %add.ptr)
  %call = tail call noalias noundef nonnull dereferenceable(1064) ptr @_Znwm(i64 noundef 1064) #17
  %pcData.i = getelementptr inbounds i8, ptr %call, i64 24
  store ptr null, ptr %pcData.i, align 8
  %mFilename.i = getelementptr inbounds i8, ptr %call, i64 32
  store i32 0, ptr %mFilename.i, align 4
  %data.i.i = getelementptr inbounds i8, ptr %call, i64 36
  store i8 0, ptr %data.i.i, align 4
  %3 = getelementptr inbounds i8, ptr %call, i64 8
  tail call void @llvm.memset.p0.i64(ptr noundef nonnull align 8 dereferenceable(17) %3, i8 0, i64 9, i1 false)
  %4 = load i32, ptr %skinwidth, align 1
  store i32 %4, ptr %call, align 8
  %5 = load i32, ptr %skinheight, align 1
  %mHeight = getelementptr inbounds i8, ptr %call, i64 4
  store i32 %5, ptr %mHeight, align 4
  %cmp.not = icmp eq i32 %4, 0
  br i1 %cmp.not, label %if.end, label %land.lhs.true

land.lhs.true:                                    ; preds = %entry
  %mul33 = tail call { i32, i1 } @llvm.umul.with.overflow.i32(i32 %4, i32 %5)
  %mul.ov = extractvalue { i32, i1 } %mul33, 1
  br i1 %mul.ov, label %if.then, label %if.end

if.then:                                          ; preds = %land.lhs.true
  %exception = tail call ptr @__cxa_allocate_exception(i64 16) #16
  invoke void @_ZN17DeadlyImportErrorC2EPKc(ptr noundef nonnull align 8 dereferenceable(16) %exception, ptr noundef nonnull @.str.2)
          to label %invoke.cont unwind label %lpad

invoke.cont:                                      ; preds = %if.then
  tail call void @__cxa_throw(ptr nonnull %exception, ptr nonnull @_ZTI17DeadlyImportError, ptr nonnull @_ZN17DeadlyImportErrorD2Ev) #19
  unreachable

lpad:                                             ; preds = %if.then
  %6 = landingpad { ptr, i32 }
          cleanup
  tail call void @__cxa_free_exception(ptr %exception) #16
  resume { ptr, i32 } %6

if.end:                                           ; preds = %land.lhs.true, %entry
  %mul10 = mul i32 %5, %4
  %conv = zext i32 %mul10 to i64
  %7 = shl nuw nsw i64 %conv, 2
  %call11 = tail call noalias noundef nonnull ptr @_Znam(i64 noundef %7) #17
  store ptr %call11, ptr %pcData.i, align 8
  call void @_ZN6Assimp11MDLImporter13SearchPaletteEPPKh(ptr noundef nonnull align 8 dereferenceable(158) %this, ptr noundef nonnull %szColorMap)
  %cmp1536.not = icmp eq i32 %mul10, 0
  %.pre = load ptr, ptr %szColorMap, align 8
  br i1 %cmp1536.not, label %for.end, label %for.body

for.body:                                         ; preds = %if.end, %for.body
  %indvars.iv = phi i64 [ %indvars.iv.next, %for.body ], [ 0, %if.end ]
  %arrayidx = getelementptr inbounds i8, ptr %szData, i64 %indvars.iv
  %8 = load i8, ptr %arrayidx, align 1
  %conv16 = zext i8 %8 to i64
  %mul17 = mul nuw nsw i64 %conv16, 3
  %arrayidx19 = getelementptr inbounds i8, ptr %.pre, i64 %mul17
  %a = getelementptr inbounds %struct.aiTexel, ptr %call11, i64 %indvars.iv, i32 3
  store i8 -1, ptr %a, align 1
  %incdec.ptr = getelementptr inbounds i8, ptr %arrayidx19, i64 1
  %9 = load i8, ptr %arrayidx19, align 1
  %r = getelementptr inbounds %struct.aiTexel, ptr %call11, i64 %indvars.iv, i32 2
  store i8 %9, ptr %r, align 1
  %incdec.ptr26 = getelementptr inbounds i8, ptr %arrayidx19, i64 2
  %10 = load i8, ptr %incdec.ptr, align 1
  %g = getelementptr inbounds %struct.aiTexel, ptr %call11, i64 %indvars.iv, i32 1
  store i8 %10, ptr %g, align 1
  %11 = load i8, ptr %incdec.ptr26, align 1
  %arrayidx32 = getelementptr inbounds %struct.aiTexel, ptr %call11, i64 %indvars.iv
  store i8 %11, ptr %arrayidx32, align 1
  %indvars.iv.next = add nuw nsw i64 %indvars.iv, 1
  %cmp15 = icmp ult i64 %indvars.iv.next, %conv
  br i1 %cmp15, label %for.body, label %for.end, !llvm.loop !6

for.end:                                          ; preds = %for.body, %if.end
  %cmp.not.i = icmp eq ptr %.pre, @_ZL21g_aclrDefaultColorMap
  %isnull.i = icmp eq ptr %.pre, null
  %or.cond.i = or i1 %cmp.not.i, %isnull.i
  br i1 %or.cond.i, label %_ZN6Assimp11MDLImporter11FreePaletteEPKh.exit, label %delete.notnull.i

delete.notnull.i:                                 ; preds = %for.end
  tail call void @_ZdaPv(ptr noundef %.pre) #18
  br label %_ZN6Assimp11MDLImporter11FreePaletteEPKh.exit

_ZN6Assimp11MDLImporter11FreePaletteEPKh.exit:    ; preds = %for.end, %delete.notnull.i
  %pScene = getelementptr inbounds i8, ptr %this, i64 136
  %12 = load ptr, ptr %pScene, align 8
  %mTextures = getelementptr inbounds i8, ptr %12, i64 72
  %13 = load ptr, ptr %mTextures, align 8
  %mNumTextures = getelementptr inbounds i8, ptr %12, i64 64
  %14 = load i32, ptr %mNumTextures, align 8
  %add = add i32 %14, 1
  %conv34 = zext i32 %add to i64
  %15 = shl nuw nsw i64 %conv34, 3
  %call35 = tail call noalias noundef nonnull ptr @_Znam(i64 noundef %15) #17
  store ptr %call35, ptr %mTextures, align 8
  %16 = load ptr, ptr %pScene, align 8
  %mNumTextures4138 = getelementptr inbounds i8, ptr %16, i64 64
  %17 = load i32, ptr %mNumTextures4138, align 8
  %cmp4239.not = icmp eq i32 %17, 0
  br i1 %cmp4239.not, label %for.end52, label %for.body43

for.body43:                                       ; preds = %_ZN6Assimp11MDLImporter11FreePaletteEPKh.exit, %for.body43
  %indvars.iv45 = phi i64 [ %indvars.iv.next46, %for.body43 ], [ 0, %_ZN6Assimp11MDLImporter11FreePaletteEPKh.exit ]
  %18 = phi ptr [ %21, %for.body43 ], [ %16, %_ZN6Assimp11MDLImporter11FreePaletteEPKh.exit ]
  %arrayidx45 = getelementptr inbounds ptr, ptr %13, i64 %indvars.iv45
  %19 = load ptr, ptr %arrayidx45, align 8
  %mTextures47 = getelementptr inbounds i8, ptr %18, i64 72
  %20 = load ptr, ptr %mTextures47, align 8
  %arrayidx49 = getelementptr inbounds ptr, ptr %20, i64 %indvars.iv45
  store ptr %19, ptr %arrayidx49, align 8
  %indvars.iv.next46 = add nuw nsw i64 %indvars.iv45, 1
  %21 = load ptr, ptr %pScene, align 8
  %mNumTextures41 = getelementptr inbounds i8, ptr %21, i64 64
  %22 = load i32, ptr %mNumTextures41, align 8
  %23 = zext i32 %22 to i64
  %cmp42 = icmp ult i64 %indvars.iv.next46, %23
  br i1 %cmp42, label %for.body43, label %for.end52.loopexit, !llvm.loop !7

for.end52.loopexit:                               ; preds = %for.body43
  %24 = zext i32 %22 to i64
  br label %for.end52

for.end52:                                        ; preds = %_ZN6Assimp11MDLImporter11FreePaletteEPKh.exit, %for.end52.loopexit
  %.lcssa34 = phi ptr [ %21, %for.end52.loopexit ], [ %16, %_ZN6Assimp11MDLImporter11FreePaletteEPKh.exit ]
  %.lcssa = phi i64 [ %24, %for.end52.loopexit ], [ 0, %_ZN6Assimp11MDLImporter11FreePaletteEPKh.exit ]
  %mTextures54 = getelementptr inbounds i8, ptr %.lcssa34, i64 72
  %25 = load ptr, ptr %mTextures54, align 8
  %arrayidx58 = getelementptr inbounds ptr, ptr %25, i64 %.lcssa
  store ptr %call, ptr %arrayidx58, align 8
  %26 = load ptr, ptr %pScene, align 8
  %mNumTextures60 = getelementptr inbounds i8, ptr %26, i64 64
  %27 = load i32, ptr %mNumTextures60, align 8
  %inc61 = add i32 %27, 1
  store i32 %inc61, ptr %mNumTextures60, align 8
  %isnull = icmp eq ptr %13, null
  br i1 %isnull, label %delete.end, label %delete.notnull

delete.notnull:                                   ; preds = %for.end52
  tail call void @_ZdaPv(ptr noundef nonnull %13) #18
  br label %delete.end

delete.end:                                       ; preds = %delete.notnull, %for.end52
  ret void
}